target datalayout = "e-m:e-p270:32:32-p271:32:32-p272:64:64-i64:64-i128:128-f80:128-n8:16:32:64-S128"
target triple = "x86_64-pc-linux-gnu"

%union.SourceSpan = type { i64 }
%struct.Decl_ = type { ptr, ptr, %union.SourceSpan, i64, %union.anon, i32, %union.anon.0, i64, ptr, ptr, ptr, %union.anon.1 }
%union.anon = type { ptr }
%union.anon.0 = type { i16 }
%union.anon.1 = type { %struct.FuncDecl }
%struct.FuncDecl = type { i32, [4 x i8], %struct.Signature_, i32, i32, %union.anon.8 }
%struct.Signature_ = type <{ %struct.CalleeAttributes, i16, i8, i32, i32, [4 x i8], ptr }>
%struct.CalleeAttributes = type { i8 }
%union.anon.8 = type { %struct.anon.9 }
%struct.anon.9 = type { i16, %union.anon.10 }
%union.anon.10 = type { ptr }
%struct.anon.2 = type { ptr, ptr, %union.anon.3 }
%union.anon.3 = type { %struct.BitStructDecl }
%struct.BitStructDecl = type { ptr, ptr, i8 }
%struct.VHeader_ = type { i32, i32, [0 x i8] }

; Function Attrs: nounwind uwtable
define dso_local ptr @sema_resolve_method(ptr noundef %0, ptr noundef %1, ptr noundef %2, ptr noundef %3, ptr noundef %4) #0 {
  %6 = alloca i32, align 4
  %7 = alloca ptr, align 8
  %8 = alloca ptr, align 8
  %9 = alloca i32, align 4
  %10 = alloca ptr, align 8
  %11 = alloca ptr, align 8
  %12 = alloca ptr, align 8
  %13 = alloca ptr, align 8
  %14 = alloca ptr, align 8
  %15 = alloca ptr, align 8
  %16 = alloca ptr, align 8
  %17 = alloca ptr, align 8
  %18 = alloca ptr, align 8
  %19 = alloca i32, align 4
  %20 = alloca i32, align 4
  %21 = alloca ptr, align 8
  %22 = alloca ptr, align 8
  %23 = alloca i32, align 4
  %24 = alloca i32, align 4
  %25 = alloca ptr, align 8
  store ptr %0, ptr %13, align 8
  store ptr %1, ptr %14, align 8
  store ptr %2, ptr %15, align 8
  store ptr %3, ptr %16, align 8
  store ptr %4, ptr %17, align 8
  %26 = load ptr, ptr %14, align 8
  %27 = getelementptr inbounds %struct.Decl_, ptr %26, i32 0, i32 3
  %28 = load i64, ptr %27, align 8
  %29 = and i64 %28, 127
  %30 = trunc i64 %29 to i32
  %31 = icmp eq i32 %30, 22
  br i1 %31, label %32, label %72

32:                                               ; preds = %5
  %33 = load ptr, ptr %14, align 8
  %34 = getelementptr inbounds %struct.Decl_, ptr %33, i32 0, i32 11
  %35 = getelementptr inbounds %struct.anon.2, ptr %34, i32 0, i32 2
  %36 = load ptr, ptr %35, align 8
  store ptr %36, ptr %18, align 8
  %37 = load ptr, ptr %18, align 8
  store ptr %37, ptr %7, align 8
  %38 = load ptr, ptr %7, align 8
  %39 = icmp ne ptr %38, null
  br i1 %39, label %41, label %40

40:                                               ; preds = %32
  store i32 0, ptr %6, align 4
  br label %46

41:                                               ; preds = %32
  %42 = load ptr, ptr %7, align 8
  store ptr %42, ptr %8, align 8
  %43 = load ptr, ptr %8, align 8
  %44 = getelementptr inbounds %struct.VHeader_, ptr %43, i64 -1
  %45 = load i32, ptr %44, align 4
  store i32 %45, ptr %6, align 4
  br label %46

46:                                               ; preds = %41, %40
  %47 = load i32, ptr %6, align 4
  store i32 %47, ptr %19, align 4
  store i32 0, ptr %20, align 4
  br label %48

48:                                               ; preds = %66, %46
  %49 = load i32, ptr %20, align 4
  %50 = load i32, ptr %19, align 4
  %51 = icmp ult i32 %49, %50
  br i1 %51, label %52, label %69

52:                                               ; preds = %48
  %53 = load ptr, ptr %18, align 8
  %54 = load i32, ptr %20, align 4
  %55 = zext i32 %54 to i64
  %56 = getelementptr inbounds ptr, ptr %53, i64 %55
  %57 = load ptr, ptr %56, align 8
  store ptr %57, ptr %21, align 8
  %58 = load ptr, ptr %15, align 8
  %59 = load ptr, ptr %21, align 8
  %60 = getelementptr inbounds %struct.Decl_, ptr %59, i32 0, i32 0
  %61 = load ptr, ptr %60, align 8
  %62 = icmp eq ptr %58, %61
  br i1 %62, label %63, label %65

63:                                               ; preds = %52
  %64 = load ptr, ptr %21, align 8
  store ptr %64, ptr %12, align 8
  br label %120

65:                                               ; preds = %52
  br label %66

66:                                               ; preds = %65
  %67 = load i32, ptr %20, align 4
  %68 = add i32 %67, 1
  store i32 %68, ptr %20, align 4
  br label %48, !llvm.loop !19

69:                                               ; preds = %48
  br label %70

70:                                               ; preds = %69
  br label %71

71:                                               ; preds = %70
  br label %72

72:                                               ; preds = %71, %5
  %73 = load ptr, ptr %14, align 8
  %74 = getelementptr inbounds %struct.Decl_, ptr %73, i32 0, i32 11
  %75 = getelementptr inbounds %struct.anon.2, ptr %74, i32 0, i32 1
  %76 = load ptr, ptr %75, align 8
  store ptr %76, ptr %22, align 8
  %77 = load ptr, ptr %22, align 8
  store ptr %77, ptr %10, align 8
  %78 = load ptr, ptr %10, align 8
  %79 = icmp ne ptr %78, null
  br i1 %79, label %81, label %80

80:                                               ; preds = %72
  store i32 0, ptr %9, align 4
  br label %86

81:                                               ; preds = %72
  %82 = load ptr, ptr %10, align 8
  store ptr %82, ptr %11, align 8
  %83 = load ptr, ptr %11, align 8
  %84 = getelementptr inbounds %struct.VHeader_, ptr %83, i64 -1
  %85 = load i32, ptr %84, align 4
  store i32 %85, ptr %9, align 4
  br label %86

86:                                               ; preds = %81, %80
  %87 = load i32, ptr %9, align 4
  store i32 %87, ptr %23, align 4
  store i32 0, ptr %24, align 4
  br label %88

88:                                               ; preds = %106, %86
  %89 = load i32, ptr %24, align 4
  %90 = load i32, ptr %23, align 4
  %91 = icmp ult i32 %89, %90
  br i1 %91, label %92, label %109

92:                                               ; preds = %88
  %93 = load ptr, ptr %22, align 8
  %94 = load i32, ptr %24, align 4
  %95 = zext i32 %94 to i64
  %96 = getelementptr inbounds ptr, ptr %93, i64 %95
  %97 = load ptr, ptr %96, align 8
  store ptr %97, ptr %25, align 8
  %98 = load ptr, ptr %15, align 8
  %99 = load ptr, ptr %25, align 8
  %100 = getelementptr inbounds %struct.Decl_, ptr %99, i32 0, i32 0
  %101 = load ptr, ptr %100, align 8
  %102 = icmp eq ptr %98, %101
  br i1 %102, label %103, label %105

103:                                              ; preds = %92
  %104 = load ptr, ptr %25, align 8
  store ptr %104, ptr %12, align 8
  br label %120

105:                                              ; preds = %92
  br label %106

106:                                              ; preds = %105
  %107 = load i32, ptr %24, align 4
  %108 = add i32 %107, 1
  store i32 %108, ptr %24, align 4
  br label %88, !llvm.loop !20

109:                                              ; preds = %88
  br label %110

110:                                              ; preds = %109
  br label %111

111:                                              ; preds = %110
  %112 = load ptr, ptr %13, align 8
  %113 = load ptr, ptr %14, align 8
  %114 = getelementptr inbounds %struct.Decl_, ptr %113, i32 0, i32 10
  %115 = load ptr, ptr %114, align 8
  %116 = load ptr, ptr %15, align 8
  %117 = load ptr, ptr %16, align 8
  %118 = load ptr, ptr %17, align 8
  %119 = call ptr @sema_resolve_type_method(ptr noundef %112, ptr noundef %115, ptr noundef %116, ptr noundef %117, ptr noundef %118)
  store ptr %119, ptr %12, align 8
  br label %120

120:                                              ; preds = %111, %103, %63
  %121 = load ptr, ptr %12, align 8
  ret ptr %121
}