; Function Attrs: nounwind uwtable
define dso_local ptr @sema_resolve_method(ptr noundef %0, ptr nocapture noundef readonly %1, ptr noundef %2, ptr noundef %3, ptr noundef %4) local_unnamed_addr #2 {
  %6 = getelementptr inbounds i8, ptr %1, i64 24
  %7 = load i64, ptr %6, align 8
  %8 = and i64 %7, 127
  %9 = icmp eq i64 %8, 22
  br i1 %9, label %10, label %.loopexit41

10:                                               ; preds = %5
  %11 = getelementptr inbounds i8, ptr %1, i64 96
  %12 = load ptr, ptr %11, align 8
  %.not = icmp eq ptr %12, null
  br i1 %.not, label %.loopexit41, label %13

13:                                               ; preds = %10
  %14 = getelementptr inbounds i8, ptr %12, i64 -8
  %15 = load i32, ptr %14, align 4
  %.not47 = icmp eq i32 %15, 0
  br i1 %.not47, label %.loopexit41, label %.lr.ph.preheader

.lr.ph.preheader:                                 ; preds = %13
  %wide.trip.count = zext i32 %15 to i64
  br label %.lr.ph

16:                                               ; preds = %.lr.ph
  %indvars.iv.next = add nuw nsw i64 %indvars.iv, 1
  %exitcond.not = icmp eq i64 %indvars.iv.next, %wide.trip.count
  br i1 %exitcond.not, label %.loopexit41, label %.lr.ph, !llvm.loop !19

.lr.ph:                                           ; preds = %.lr.ph.preheader, %16
  %indvars.iv = phi i64 [ 0, %.lr.ph.preheader ], [ %indvars.iv.next, %16 ]
  %17 = getelementptr inbounds ptr, ptr %12, i64 %indvars.iv
  %18 = load ptr, ptr %17, align 8
  %19 = load ptr, ptr %18, align 8
  %20 = icmp eq ptr %19, %2
  br i1 %20, label %.loopexit, label %16

.loopexit41:                                      ; preds = %16, %10, %13, %5
  %21 = getelementptr inbounds i8, ptr %1, i64 88
  %22 = load ptr, ptr %21, align 8
  %.not40 = icmp eq ptr %22, null
  br i1 %.not40, label %._crit_edge, label %23

23:                                               ; preds = %.loopexit41
  %24 = getelementptr inbounds i8, ptr %22, i64 -8
  %25 = load i32, ptr %24, align 4
  %.not48 = icmp eq i32 %25, 0
  br i1 %.not48, label %._crit_edge, label %.lr.ph46.preheader

.lr.ph46.preheader:                               ; preds = %23
  %wide.trip.count57 = zext i32 %25 to i64
  br label %.lr.ph46

26:                                               ; preds = %.lr.ph46
  %indvars.iv.next55 = add nuw nsw i64 %indvars.iv54, 1
  %exitcond58.not = icmp eq i64 %indvars.iv.next55, %wide.trip.count57
  br i1 %exitcond58.not, label %._crit_edge, label %.lr.ph46, !llvm.loop !20

.lr.ph46:                                         ; preds = %.lr.ph46.preheader, %26
  %indvars.iv54 = phi i64 [ 0, %.lr.ph46.preheader ], [ %indvars.iv.next55, %26 ]
  %27 = getelementptr inbounds ptr, ptr %22, i64 %indvars.iv54
  %28 = load ptr, ptr %27, align 8
  %29 = load ptr, ptr %28, align 8
  %30 = icmp eq ptr %29, %2
  br i1 %30, label %.loopexit, label %26

._crit_edge:                                      ; preds = %26, %.loopexit41, %23
  %31 = getelementptr inbounds i8, ptr %1, i64 72
  %32 = load ptr, ptr %31, align 8
  %33 = tail call ptr @sema_resolve_type_method(ptr noundef %0, ptr noundef %32, ptr noundef %2, ptr noundef %3, ptr noundef %4)
  br label %.loopexit

.loopexit:                                        ; preds = %.lr.ph, %.lr.ph46, %._crit_edge
  %.036 = phi ptr [ %33, %._crit_edge ], [ %28, %.lr.ph46 ], [ %18, %.lr.ph ]
  ret ptr %.036
}